((cnumpy.core.multiarray
scalar
p0
(cnumpy
dtype
p1
(S'f8'
p2
I0
I1
tp3
Rp4
(I3
S'<'
p5
NNNI-1
I-1
I0
tp6
bS'5\x0f\xa4j\x87\xef\x15@'
p7
tp8
Rp9
g0
(g4
S'7\xbc\x12\x991\xcb\x15@'
p10
tp11
Rp12
tp13
(F0.22289540628618987
F0.21029706393638545
tp14
tp15
.