((cnumpy.core.multiarray
scalar
p0
(cnumpy
dtype
p1
(S'f8'
p2
I0
I1
tp3
Rp4
(I3
S'<'
p5
NNNI-1
I-1
I0
tp6
bS'O\xd8r\xd7WS\x15@'
p7
tp8
Rp9
g0
(g4
S'5\x0f\xa4j\x87\xef\x15@'
p10
tp11
Rp12
tp13
(F0.23344328958887395
F0.22289540628618987
tp14
tp15
.