((cnumpy.core.multiarray
scalar
p0
(cnumpy
dtype
p1
(S'f8'
p2
I0
I1
tp3
Rp4
(I3
S'<'
p5
NNNI-1
I-1
I0
tp6
bS'@dR\xfb\xcd\xc5\x00@'
p7
tp8
Rp9
g0
(g4
S'\xbe\x9f\xc7\xc2\x88a\x00@'
p10
tp11
Rp12
tp13
(F0.11123934137568993
F0.146555080410675
tp14
tp15
.