((cnumpy.core.multiarray
scalar
p0
(cnumpy
dtype
p1
(S'f8'
p2
I0
I1
tp3
Rp4
(I3
S'<'
p5
NNNI-1
I-1
I0
tp6
bS'\xf9\x9cUB=\x99]@'
p7
tp8
Rp9
g0
(g4
S'\xbe5\xc9>\xe9 `@'
p10
tp11
Rp12
tp13
(F42.46359974822016
F32.84848769170836
tp14
tp15
.