((cnumpy.core.multiarray
scalar
p0
(cnumpy
dtype
p1
(S'f8'
p2
I0
I1
tp3
Rp4
(I3
S'<'
p5
NNNI-1
I-1
I0
tp6
bS'N\xaa\xdd\x14\xfc\xdb\x12@'
p7
tp8
Rp9
g0
(g4
S'K\x02:\xddlO\x13@'
p10
tp11
Rp12
tp13
(F0.337455543456173
F0.25613804920614025
tp14
tp15
.