((cnumpy.core.multiarray
scalar
p0
(cnumpy
dtype
p1
(S'f8'
p2
I0
I1
tp3
Rp4
(I3
S'<'
p5
NNNI-1
I-1
I0
tp6
bS'6\x06\x9b~\xd1\x8ab@'
p7
tp8
Rp9
g0
(g4
S'\xae\x06\xbd\x1fQ\xab^@'
p10
tp11
Rp12
tp13
(F34.76261122389148
F17.43605281058056
tp14
tp15
.