((cnumpy.core.multiarray
scalar
p0
(cnumpy
dtype
p1
(S'f8'
p2
I0
I1
tp3
Rp4
(I3
S'<'
p5
NNNI-1
I-1
I0
tp6
bS'\xa2c\x80\xf6t\xe5w@'
p7
tp8
Rp9
g0
(g4
S'jHp\x88.\x8a`@'
p10
tp11
Rp12
tp13
(F62.32461322573025
F30.605267701747216
tp14
tp15
.