((cnumpy.core.multiarray
scalar
p0
(cnumpy
dtype
p1
(S'f8'
p2
I0
I1
tp3
Rp4
(I3
S'<'
p5
NNNI-1
I-1
I0
tp6
bS'\xd0\x80d\xb4gq\x13@'
p7
tp8
Rp9
g0
(g4
S'u\xff\x06\xdc~\xba\x17@'
p10
tp11
Rp12
tp13
(F0.22527642271942208
F0.17264027724000872
tp14
tp15
.